(lp0
(S'ifDescr_fa4'
p1
S'1.3.6.1.2.1.2.2.1.2.5'
p2
tp3
a(S'ifInOctets_fa4'
p4
S'1.3.6.1.2.1.2.2.1.10.5'
p5
tp6
a(S'ifInUcastPkts_fa4'
p7
S'1.3.6.1.2.1.2.2.1.11.5'
p8
tp9
a(S'ifOutOctets_fa4'
p10
S'1.3.6.1.2.1.2.2.1.16.5'
p11
tp12
a(S'ifOutUcastPkts_fa4'
p13
S'1.3.6.1.2.1.2.2.1.17.5'
p14
tp15
a.S'no'
p0
.S''
p0
.(lp0
S'2017/08/08 07:18:44'
p1
aS'FastEthernet4'
p2
aS'1949106376'
p3
aS'18022514'
p4
aS'2708043669'
p5
aS'19233576'
p6
a.(lp0
S'2017/08/08 07:19:58'
p1
aS'FastEthernet4'
p2
aS'1949110036'
p3
aS'18022540'
p4
aS'2708048142'
p5
aS'19233602'
p6
a.(lp0
S'2017/08/08 07:24:59'
p1
aS'FastEthernet4'
p2
aS'1949128509'
p3
aS'18022741'
p4
aS'2708081609'
p5
aS'19233806'
p6
a.(lp0
S'2017/08/08 07:29:59'
p1
aS'FastEthernet4'
p2
aS'1949135284'
p3
aS'18022797'
p4
aS'2708092023'
p5
aS'19233860'
p6
a.(lp0
S'2017/08/08 07:35:00'
p1
aS'FastEthernet4'
p2
aS'1949142281'
p3
aS'18022853'
p4
aS'2708102995'
p5
aS'19233913'
p6
a.(lp0
S'2017/08/08 07:40:01'
p1
aS'FastEthernet4'
p2
aS'1949149414'
p3
aS'18022912'
p4
aS'2708114111'
p5
aS'19233970'
p6
a.(lp0
S'2017/08/08 07:45:03'
p1
aS'FastEthernet4'
p2
aS'1949155805'
p3
aS'18022961'
p4
aS'2708124154'
p5
aS'19234016'
p6
a.(lp0
S'2017/08/08 07:50:04'
p1
aS'FastEthernet4'
p2
aS'1949162880'
p3
aS'18023019'
p4
aS'2708135184'
p5
aS'19234072'
p6
a.(lp0
S'2017/08/08 07:55:05'
p1
aS'FastEthernet4'
p2
aS'1949170113'
p3
aS'18023078'
p4
aS'2708146127'
p5
aS'19234129'
p6
a.(lp0
S'2017/08/08 08:00:06'
p1
aS'FastEthernet4'
p2
aS'1949176404'
p3
aS'18023127'
p4
aS'2708156343'
p5
aS'19234175'
p6
a.(lp0
S'2017/08/08 08:05:07'
p1
aS'FastEthernet4'
p2
aS'1949183221'
p3
aS'18023180'
p4
aS'2708166793'
p5
aS'19234227'
p6
a.(lp0
S'2017/08/08 08:10:08'
p1
aS'FastEthernet4'
p2
aS'1949189862'
p3
aS'18023232'
p4
aS'2708177463'
p5
aS'19234278'
p6
a.(lp0
S'2017/08/08 08:15:09'
p1
aS'FastEthernet4'
p2
aS'1949197275'
p3
aS'18023291'
p4
aS'2708188855'
p5
aS'19234336'
p6
a.(lp0
S'2017/08/08 08:20:10'
p1
aS'FastEthernet4'
p2
aS'1949205865'
p3
aS'18023360'
p4
aS'2708201756'
p5
aS'19234403'
p6
a.(lp0
S'2017/08/08 08:25:11'
p1
aS'FastEthernet4'
p2
aS'1949222459'
p3
aS'18023546'
p4
aS'2708232843'
p5
aS'19234594'
p6
a.(lp0
S'2017/08/08 08:30:12'
p1
aS'FastEthernet4'
p2
aS'1949229534'
p3
aS'18023604'
p4
aS'2708243826'
p5
aS'19234649'
p6
a.(lp0
S'2017/08/08 08:35:13'
p1
aS'FastEthernet4'
p2
aS'1949236043'
p3
aS'18023653'
p4
aS'2708253942'
p5
aS'19234696'
p6
a.(lp0
S'2017/08/08 08:40:14'
p1
aS'FastEthernet4'
p2
aS'1949242458'
p3
aS'18023704'
p4
aS'2708264265'
p5
aS'19234744'
p6
a.(lp0
S'2017/08/08 08:45:15'
p1
aS'FastEthernet4'
p2
aS'1949250524'
p3
aS'18023768'
p4
aS'2708275894'
p5
aS'19234807'
p6
a.(lp0
S'2017/08/08 08:50:16'
p1
aS'FastEthernet4'
p2
aS'1949256867'
p3
aS'18023819'
p4
aS'2708286178'
p5
aS'19234856'
p6
a.(lp0
S'2017/08/08 08:55:16'
p1
aS'FastEthernet4'
p2
aS'1949263564'
p3
aS'18023872'
p4
aS'2708296581'
p5
aS'19234908'
p6
a.(lp0
S'2017/08/08 09:00:18'
p1
aS'FastEthernet4'
p2
aS'1949276226'
p3
aS'18024022'
p4
aS'2708316368'
p5
aS'19235072'
p6
a.(lp0
S'2017/08/08 09:05:19'
p1
aS'FastEthernet4'
p2
aS'1949282803'
p3
aS'18024074'
p4
aS'2708327027'
p5
aS'19235122'
p6
a.(lp0
S'2017/08/08 09:10:20'
p1
aS'FastEthernet4'
p2
aS'1949292919'
p3
aS'18024180'
p4
aS'2708342920'
p5
aS'19235230'
p6
a.(lp0
S'2017/08/08 09:15:20'
p1
aS'FastEthernet4'
p2
aS'1949303171'
p3
aS'18024292'
p4
aS'2708359324'
p5
aS'19235340'
p6
a.(lp0
S'2017/08/08 09:20:21'
p1
aS'FastEthernet4'
p2
aS'1949315105'
p3
aS'18024409'
p4
aS'2708379178'
p5
aS'19235457'
p6
a.