(lp0
(S'ifDescr_fa4'
p1
S'1.3.6.1.2.1.2.2.1.2.5'
p2
tp3
a(S'ifInOctets_fa4'
p4
S'1.3.6.1.2.1.2.2.1.10.5'
p5
tp6
a(S'ifInUcastPkts_fa4'
p7
S'1.3.6.1.2.1.2.2.1.11.5'
p8
tp9
a(S'ifOutOctets_fa4'
p10
S'1.3.6.1.2.1.2.2.1.16.5'
p11
tp12
a(S'ifOutUcastPkts_fa4'
p13
S'1.3.6.1.2.1.2.2.1.17.5'
p14
tp15
a.S'no'
p0
.S''
p0
.(lp0
S'2017/08/08 10:54:05'
p1
aS'FastEthernet4'
p2
aS'1949433248'
p3
aS'18025499'
p4
aS'2708586005'
p5
aS'19236516'
p6
a.(lp0
S'2017/08/08 10:59:06'
p1
aS'FastEthernet4'
p2
aS'1949439517'
p3
aS'18025547'
p4
aS'2708596183'
p5
aS'19236562'
p6
a.(lp0
S'2017/08/08 11:04:07'
p1
aS'FastEthernet4'
p2
aS'1949446854'
p3
aS'18025608'
p4
aS'2708607610'
p5
aS'19236621'
p6
a.(lp0
S'2017/08/08 11:09:08'
p1
aS'FastEthernet4'
p2
aS'1949453969'
p3
aS'18025667'
p4
aS'2708618346'
p5
aS'19236679'
p6
a.(lp0
S'2017/08/08 11:14:09'
p1
aS'FastEthernet4'
p2
aS'1949460584'
p3
aS'18025719'
p4
aS'2708628993'
p5
aS'19236729'
p6
a.(lp0
S'2017/08/08 11:19:10'
p1
aS'FastEthernet4'
p2
aS'1949466733'
p3
aS'18025767'
p4
aS'2708638782'
p5
aS'19236775'
p6
a.(lp0
S'2017/08/08 11:24:11'
p1
aS'FastEthernet4'
p2
aS'1949485844'
p3
aS'18025976'
p4
aS'2708672481'
p5
aS'19236985'
p6
a.(lp0
S'2017/08/08 11:29:12'
p1
aS'FastEthernet4'
p2
aS'1949492713'
p3
aS'18026031'
p4
aS'2708682930'
p5
aS'19237038'
p6
a.(lp0
S'2017/08/08 11:34:13'
p1
aS'FastEthernet4'
p2
aS'1949557073'
p3
aS'18026746'
p4
aS'2708792236'
p5
aS'19237751'
p6
a.(lp0
S'2017/08/08 11:39:14'
p1
aS'FastEthernet4'
p2
aS'1949618723'
p3
aS'18027455'
p4
aS'2708920224'
p5
aS'19238458'
p6
a.(lp0
S'2017/08/08 11:44:15'
p1
aS'FastEthernet4'
p2
aS'1949651116'
p3
aS'18027825'
p4
aS'2708985664'
p5
aS'19238827'
p6
a.(lp0
S'2017/08/08 11:49:16'
p1
aS'FastEthernet4'
p2
aS'1949690824'
p3
aS'18028254'
p4
aS'2709048835'
p5
aS'19239253'
p6
a.(lp0
S'2017/08/08 11:54:17'
p1
aS'FastEthernet4'
p2
aS'1949697561'
p3
aS'18028307'
p4
aS'2709059602'
p5
aS'19239305'
p6
a.