(lp0
(S'ifDescr_fa4'
p1
S'1.3.6.1.2.1.2.2.1.2.5'
p2
tp3
a(S'ifInOctets_fa4'
p4
S'1.3.6.1.2.1.2.2.1.10.5'
p5
tp6
a(S'ifInUcastPkts_fa4'
p7
S'1.3.6.1.2.1.2.2.1.11.5'
p8
tp9
a(S'ifOutOctets_fa4'
p10
S'1.3.6.1.2.1.2.2.1.16.5'
p11
tp12
a(S'ifOutUcastPkts_fa4'
p13
S'1.3.6.1.2.1.2.2.1.17.5'
p14
tp15
a.S'no'
p0
.S''
p0
.(lp0
S'2017/08/08 06:39:18'
p1
aS'FastEthernet4'
p2
aS'1949046454'
p3
aS'18021982'
p4
aS'2707948996'
p5
aS'19233053'
p6
a.(lp0
S'2017/08/08 06:44:20'
p1
aS'FastEthernet4'
p2
aS'1949053189'
p3
aS'18022038'
p4
aS'2707959981'
p5
aS'19233108'
p6
a.(lp0
S'2017/08/08 06:49:20'
p1
aS'FastEthernet4'
p2
aS'1949062821'
p3
aS'18022141'
p4
aS'2707975500'
p5
aS'19233213'
p6
a.(lp0
S'2017/08/08 06:54:21'
p1
aS'FastEthernet4'
p2
aS'1949072645'
p3
aS'18022245'
p4
aS'2707991291'
p5
aS'19233319'
p6
a.(lp0
S'2017/08/08 06:59:22'
p1
aS'FastEthernet4'
p2
aS'1949079487'
p3
aS'18022299'
p4
aS'2708002049'
p5
aS'19233370'
p6
a.(lp0
S'2017/08/08 07:04:23'
p1
aS'FastEthernet4'
p2
aS'1949086799'
p3
aS'18022359'
p4
aS'2708013080'
p5
aS'19233428'
p6
a.(lp0
S'2017/08/08 07:09:24'
p1
aS'FastEthernet4'
p2
aS'1949093169'
p3
aS'18022409'
p4
aS'2708023418'
p5
aS'19233476'
p6
a.(lp0
S'2017/08/08 07:14:25'
p1
aS'FastEthernet4'
p2
aS'1949100366'
p3
aS'18022467'
p4
aS'2708034209'
p5
aS'19233530'
p6
a.